; Function Attrs: nounwind uwtable
define hidden ptr @SDL_CreateGPUTransferBuffer_REAL(ptr noundef readonly captures(address_is_null) %0, ptr noundef readonly captures(address_is_null) %1) local_unnamed_addr #0 {
  %3 = icmp eq ptr %0, null
  br i1 %3, label %4, label %6

4:                                                ; preds = %2
  %5 = tail call zeroext i1 (ptr, ...) @SDL_SetError_REAL(ptr noundef nonnull @.str.3) #7
  br label %22

6:                                                ; preds = %2
  %7 = icmp eq ptr %1, null
  br i1 %7, label %8, label %10

8:                                                ; preds = %6
  %9 = tail call zeroext i1 (ptr, ...) @SDL_SetError_REAL(ptr noundef nonnull @.str.4, ptr noundef nonnull @.str.11) #7
  br label %22

10:                                               ; preds = %6
  %11 = getelementptr inbounds nuw i8, ptr %1, i64 8
  %12 = load i32, ptr %11, align 4
  %13 = tail call ptr @SDL_GetStringProperty_REAL(i32 noundef %12, ptr noundef nonnull @.str.175, ptr noundef null) #7
  %14 = getelementptr inbounds nuw i8, ptr %0, i64 64
  %15 = load ptr, ptr %14, align 8
  %16 = getelementptr inbounds nuw i8, ptr %0, i64 664
  %17 = load ptr, ptr %16, align 8
  %18 = load i32, ptr %1, align 4
  %19 = getelementptr inbounds nuw i8, ptr %1, i64 4
  %20 = load i32, ptr %19, align 4
  %21 = tail call ptr %15(ptr noundef %17, i32 noundef %18, i32 noundef %20, ptr noundef %13) #7
  br label %22

22:                                               ; preds = %10, %8, %4
  %.0 = phi ptr [ null, %4 ], [ null, %8 ], [ %21, %10 ]
  ret ptr %.0
}